target datalayout = "e-m:e-p270:32:32-p271:32:32-p272:64:64-i64:64-i128:128-f80:128-n8:16:32:64-S128"
target triple = "x86_64-unknown-linux-gnu"

; Function Attrs: mustprogress uwtable
define void @_ZN9grpc_core15FilterStackCall12BatchControl10FinishStepENS0_9PendingOpE(ptr noundef nonnull align 8 dereferenceable(208) %this, i32 noundef %op) #4 align 2 {
entry:
  %this.addr = alloca ptr, align 8
  %op.addr = alloca i32, align 4
  store ptr %this, ptr %this.addr, align 8
  store i32 %op, ptr %op.addr, align 4
  %this1 = load ptr, ptr %this.addr, align 8
  %0 = load i32, ptr %op.addr, align 4
  %call = call noundef zeroext i1 @_ZN9grpc_core15FilterStackCall12BatchControl20completed_batch_stepENS0_9PendingOpE(ptr noundef nonnull align 8 dereferenceable(208) %this1, i32 noundef %0)
  br i1 %call, label %if.then, label %if.end

if.then:                                          ; preds = %entry
  call void @_ZN9grpc_core15FilterStackCall12BatchControl14PostCompletionEv(ptr noundef nonnull align 8 dereferenceable(208) %this1)
  br label %if.end

if.end:                                           ; preds = %if.then, %entry
  ret void
}