; Function Attrs: mustprogress uwtable
define void @_ZN9grpc_core15FilterStackCall12BatchControl10FinishStepENS0_9PendingOpE(ptr noundef nonnull align 8 dereferenceable(208) %this, i32 noundef %op) local_unnamed_addr #3 align 2 {
entry:
  %call = tail call noundef zeroext i1 @_ZN9grpc_core15FilterStackCall12BatchControl20completed_batch_stepENS0_9PendingOpE(ptr noundef nonnull align 8 dereferenceable(208) %this, i32 noundef %op)
  br i1 %call, label %if.then, label %if.end

if.then:                                          ; preds = %entry
  tail call void @_ZN9grpc_core15FilterStackCall12BatchControl14PostCompletionEv(ptr noundef nonnull align 8 dereferenceable(208) %this)
  br label %if.end

if.end:                                           ; preds = %if.then, %entry
  ret void
}